target datalayout = "e-m:e-p270:32:32-p271:32:32-p272:64:64-i64:64-i128:128-f80:128-n8:16:32:64-S128"
target triple = "x86_64-pc-linux-gnu"

%struct.stat = type { i64, i64, i64, i32, i32, i32, i32, i64, i64, i64, i64, %struct.timespec, %struct.timespec, %struct.timespec, [3 x i64] }
%struct.timespec = type { i64, i64 }
%struct.mntent = type { ptr, ptr, ptr, ptr, i32, i32 }

@__const.pmix_path_nfs.fs_types = private unnamed_addr constant [7 x ptr] [ptr @.str.3, ptr @.str.4, ptr @.str.5, ptr @.str.6, ptr @.str.7, ptr @.str.8, ptr null], align 16
@.str.9 = private unnamed_addr constant [13 x i8] c"/proc/mounts\00", align 1
@.str.10 = private unnamed_addr constant [2 x i8] c"r\00", align 1
@.str.11 = private unnamed_addr constant [10 x i8] c"/etc/mtab\00", align 1

; Function Attrs: nounwind uwtable
define zeroext i1 @pmix_path_nfs(ptr noundef %0, ptr noundef %1) #0 {
  %3 = alloca i1, align 1
  %4 = alloca ptr, align 8
  %5 = alloca ptr, align 8
  %6 = alloca %struct.stat, align 8
  %7 = alloca %struct.mntent, align 8
  %8 = alloca ptr, align 8
  %9 = alloca i64, align 8
  %10 = alloca [1024 x i8], align 16
  %11 = alloca i32, align 4
  %12 = alloca i32, align 4
  %13 = alloca [7 x ptr], align 16
  %14 = alloca ptr, align 8
  %15 = alloca i32, align 4
  store ptr %0, ptr %4, align 8, !tbaa !3
  store ptr %1, ptr %5, align 8, !tbaa !9
  call void @llvm.lifetime.start.p0(i64 144, ptr %6) #8
  call void @llvm.lifetime.start.p0(i64 40, ptr %7) #8
  call void @llvm.lifetime.start.p0(i64 8, ptr %8) #8
  call void @llvm.lifetime.start.p0(i64 8, ptr %9) #8
  call void @llvm.lifetime.start.p0(i64 1024, ptr %10) #8
  call void @llvm.lifetime.start.p0(i64 4, ptr %11) #8
  call void @llvm.lifetime.start.p0(i64 4, ptr %12) #8
  call void @llvm.lifetime.start.p0(i64 56, ptr %13) #8
  call void @llvm.memcpy.p0.p0.i64(ptr align 16 %13, ptr align 16 @__const.pmix_path_nfs.fs_types, i64 56, i1 false)
  call void @llvm.lifetime.start.p0(i64 8, ptr %14) #8
  %16 = load ptr, ptr %4, align 8, !tbaa !3
  %17 = call i32 (ptr, i32, ...) @open(ptr noundef %16, i32 noundef 0)
  store i32 %17, ptr %11, align 4, !tbaa !11
  %18 = load i32, ptr %11, align 4, !tbaa !11
  %19 = icmp sgt i32 0, %18
  br i1 %19, label %20, label %30

20:                                               ; preds = %2
  %21 = load ptr, ptr %4, align 8, !tbaa !3
  %22 = call noalias ptr @pmix_dirname(ptr noundef %21)
  store ptr %22, ptr %14, align 8, !tbaa !3
  %23 = load ptr, ptr %14, align 8, !tbaa !3
  %24 = call i32 (ptr, i32, ...) @open(ptr noundef %23, i32 noundef 0)
  store i32 %24, ptr %11, align 4, !tbaa !11
  %25 = load ptr, ptr %14, align 8, !tbaa !3
  call void @free(ptr noundef %25) #8
  %26 = load i32, ptr %11, align 4, !tbaa !11
  %27 = icmp sgt i32 0, %26
  br i1 %27, label %28, label %29

28:                                               ; preds = %20
  store i1 false, ptr %3, align 1
  store i32 1, ptr %15, align 4
  br label %108

29:                                               ; preds = %20
  br label %30

30:                                               ; preds = %29, %2
  %31 = load i32, ptr %11, align 4, !tbaa !11
  %32 = call i32 @fstat(i32 noundef %31, ptr noundef %6) #8
  %33 = icmp ne i32 %32, 0
  br i1 %33, label %34, label %35

34:                                               ; preds = %30
  store i1 false, ptr %3, align 1
  store i32 1, ptr %15, align 4
  br label %108

35:                                               ; preds = %30
  %36 = load i32, ptr %11, align 4, !tbaa !11
  %37 = call i32 @close(i32 noundef %36)
  %38 = getelementptr inbounds nuw %struct.stat, ptr %6, i32 0, i32 0
  %39 = load i64, ptr %38, align 8, !tbaa !29
  store i64 %39, ptr %9, align 8, !tbaa !15
  %40 = call ptr @setmntent(ptr noundef @.str.9, ptr noundef @.str.10) #8
  store ptr %40, ptr %8, align 8, !tbaa !32
  %41 = icmp eq ptr %40, null
  br i1 %41, label %42, label %47

42:                                               ; preds = %35
  %43 = call ptr @setmntent(ptr noundef @.str.11, ptr noundef @.str.10) #8
  store ptr %43, ptr %8, align 8, !tbaa !32
  %44 = icmp eq ptr %43, null
  br i1 %44, label %45, label %46

45:                                               ; preds = %42
  store i1 false, ptr %3, align 1
  store i32 1, ptr %15, align 4
  br label %108

46:                                               ; preds = %42
  br label %47

47:                                               ; preds = %46, %35
  br label %48

48:                                               ; preds = %102, %64, %59, %47
  %49 = load ptr, ptr %8, align 8, !tbaa !32
  %50 = getelementptr inbounds [1024 x i8], ptr %10, i64 0, i64 0
  %51 = call ptr @getmntent_r(ptr noundef %49, ptr noundef %7, ptr noundef %50, i32 noundef 1024) #8
  %52 = icmp ne ptr %51, null
  br i1 %52, label %53, label %105

53:                                               ; preds = %48
  %54 = getelementptr inbounds nuw %struct.mntent, ptr %7, i32 0, i32 1
  %55 = load ptr, ptr %54, align 8, !tbaa !34
  %56 = call i32 (ptr, i32, ...) @open(ptr noundef %55, i32 noundef 0)
  store i32 %56, ptr %11, align 4, !tbaa !11
  %57 = load i32, ptr %11, align 4, !tbaa !11
  %58 = icmp sgt i32 0, %57
  br i1 %58, label %59, label %60

59:                                               ; preds = %53
  br label %48, !llvm.loop !36

60:                                               ; preds = %53
  %61 = load i32, ptr %11, align 4, !tbaa !11
  %62 = call i32 @fstat(i32 noundef %61, ptr noundef %6) #8
  %63 = icmp ne i32 %62, 0
  br i1 %63, label %64, label %67

64:                                               ; preds = %60
  %65 = load i32, ptr %11, align 4, !tbaa !11
  %66 = call i32 @close(i32 noundef %65)
  br label %48, !llvm.loop !36

67:                                               ; preds = %60
  %68 = getelementptr inbounds nuw %struct.stat, ptr %6, i32 0, i32 0
  %69 = load i64, ptr %68, align 8, !tbaa !29
  %70 = load i64, ptr %9, align 8, !tbaa !15
  %71 = icmp eq i64 %69, %70
  br i1 %71, label %72, label %102

72:                                               ; preds = %67
  %73 = getelementptr inbounds nuw %struct.mntent, ptr %7, i32 0, i32 2
  %74 = load ptr, ptr %73, align 8, !tbaa !37
  %75 = call noalias ptr @strdup(ptr noundef %74) #8
  %76 = load ptr, ptr %5, align 8, !tbaa !9
  store ptr %75, ptr %76, align 8, !tbaa !3
  %77 = load i32, ptr %11, align 4, !tbaa !11
  %78 = call i32 @close(i32 noundef %77)
  %79 = load ptr, ptr %8, align 8, !tbaa !32
  %80 = call i32 @endmntent(ptr noundef %79) #8
  store i32 0, ptr %12, align 4, !tbaa !11
  br label %81

81:                                               ; preds = %98, %72
  %82 = load i32, ptr %12, align 4, !tbaa !11
  %83 = sext i32 %82 to i64
  %84 = getelementptr inbounds [7 x ptr], ptr %13, i64 0, i64 %83
  %85 = load ptr, ptr %84, align 8, !tbaa !3
  %86 = icmp ne ptr null, %85
  br i1 %86, label %87, label %101

87:                                               ; preds = %81
  %88 = load i32, ptr %12, align 4, !tbaa !11
  %89 = sext i32 %88 to i64
  %90 = getelementptr inbounds [7 x ptr], ptr %13, i64 0, i64 %89
  %91 = load ptr, ptr %90, align 8, !tbaa !3
  %92 = getelementptr inbounds nuw %struct.mntent, ptr %7, i32 0, i32 2
  %93 = load ptr, ptr %92, align 8, !tbaa !37
  %94 = call i32 @strcmp(ptr noundef %91, ptr noundef %93) #9
  %95 = icmp eq i32 0, %94
  br i1 %95, label %96, label %97

96:                                               ; preds = %87
  store i1 true, ptr %3, align 1
  store i32 1, ptr %15, align 4
  br label %108

97:                                               ; preds = %87
  br label %98

98:                                               ; preds = %97
  %99 = load i32, ptr %12, align 4, !tbaa !11
  %100 = add nsw i32 %99, 1
  store i32 %100, ptr %12, align 4, !tbaa !11
  br label %81, !llvm.loop !38

101:                                              ; preds = %81
  store i1 false, ptr %3, align 1
  store i32 1, ptr %15, align 4
  br label %108

102:                                              ; preds = %67
  %103 = load i32, ptr %11, align 4, !tbaa !11
  %104 = call i32 @close(i32 noundef %103)
  br label %48, !llvm.loop !36

105:                                              ; preds = %48
  %106 = load ptr, ptr %8, align 8, !tbaa !32
  %107 = call i32 @endmntent(ptr noundef %106) #8
  store i1 false, ptr %3, align 1
  store i32 1, ptr %15, align 4
  br label %108

108:                                              ; preds = %105, %101, %96, %45, %34, %28
  call void @llvm.lifetime.end.p0(i64 8, ptr %14) #8
  call void @llvm.lifetime.end.p0(i64 56, ptr %13) #8
  call void @llvm.lifetime.end.p0(i64 4, ptr %12) #8
  call void @llvm.lifetime.end.p0(i64 4, ptr %11) #8
  call void @llvm.lifetime.end.p0(i64 1024, ptr %10) #8
  call void @llvm.lifetime.end.p0(i64 8, ptr %9) #8
  call void @llvm.lifetime.end.p0(i64 8, ptr %8) #8
  call void @llvm.lifetime.end.p0(i64 40, ptr %7) #8
  call void @llvm.lifetime.end.p0(i64 144, ptr %6) #8
  %109 = load i1, ptr %3, align 1
  ret i1 %109
}