; Function Attrs: nounwind uwtable
define noundef zeroext i1 @pmix_path_nfs(ptr noundef %0, ptr noundef writeonly captures(none) %1) local_unnamed_addr #1 {
  %3 = alloca %struct.stat, align 8
  %4 = alloca %struct.mntent, align 8
  %5 = alloca [1024 x i8], align 16
  call void @llvm.lifetime.start.p0(i64 144, ptr nonnull %3) #14
  call void @llvm.lifetime.start.p0(i64 40, ptr nonnull %4) #14
  call void @llvm.lifetime.start.p0(i64 1024, ptr nonnull %5) #14
  %6 = tail call i32 (ptr, i32, ...) @open(ptr noundef %0, i32 noundef 0) #14
  %7 = icmp slt i32 %6, 0
  br i1 %7, label %8, label %12

8:                                                ; preds = %2
  %9 = tail call noalias ptr @pmix_dirname(ptr noundef %0) #14
  %10 = tail call i32 (ptr, i32, ...) @open(ptr noundef %9, i32 noundef 0) #14
  tail call void @free(ptr noundef %9) #14
  %11 = icmp slt i32 %10, 0
  br i1 %11, label %.loopexit, label %12

12:                                               ; preds = %8, %2
  %.022 = phi i32 [ %10, %8 ], [ %6, %2 ]
  %13 = call i32 @fstat(i32 noundef %.022, ptr noundef nonnull %3) #14
  %.not = icmp eq i32 %13, 0
  br i1 %.not, label %14, label %.loopexit

14:                                               ; preds = %12
  %15 = tail call i32 @close(i32 noundef %.022) #14
  %16 = load i64, ptr %3, align 8, !tbaa !19
  %17 = tail call ptr @setmntent(ptr noundef nonnull @.str.9, ptr noundef nonnull @.str.10) #14
  %18 = icmp eq ptr %17, null
  br i1 %18, label %19, label %22

19:                                               ; preds = %14
  %20 = tail call ptr @setmntent(ptr noundef nonnull @.str.11, ptr noundef nonnull @.str.10) #14
  %21 = icmp eq ptr %20, null
  br i1 %21, label %.loopexit, label %22

22:                                               ; preds = %19, %14
  %.023 = phi ptr [ %20, %19 ], [ %17, %14 ]
  %23 = call ptr @getmntent_r(ptr noundef nonnull %.023, ptr noundef nonnull %4, ptr noundef nonnull %5, i32 noundef 1024) #14
  %.not3033 = icmp eq ptr %23, null
  br i1 %.not3033, label %._crit_edge, label %.lr.ph

.lr.ph:                                           ; preds = %22
  %24 = getelementptr inbounds nuw i8, ptr %4, i64 8
  br label %25

25:                                               ; preds = %.lr.ph, %.backedge
  %26 = load ptr, ptr %24, align 8, !tbaa !23
  %27 = call i32 (ptr, i32, ...) @open(ptr noundef %26, i32 noundef 0) #14
  %28 = icmp slt i32 %27, 0
  br i1 %28, label %.backedge, label %29

29:                                               ; preds = %25
  %30 = call i32 @fstat(i32 noundef %27, ptr noundef nonnull %3) #14
  %.not31 = icmp eq i32 %30, 0
  %31 = load i64, ptr %3, align 8
  %32 = icmp eq i64 %31, %16
  %or.cond = select i1 %.not31, i1 %32, i1 false
  br i1 %or.cond, label %35, label %.backedge.sink.split

.backedge.sink.split:                             ; preds = %29
  %33 = call i32 @close(i32 noundef %27) #14
  br label %.backedge

.backedge:                                        ; preds = %.backedge.sink.split, %25
  %34 = call ptr @getmntent_r(ptr noundef nonnull %.023, ptr noundef nonnull %4, ptr noundef nonnull %5, i32 noundef 1024) #14
  %.not30 = icmp eq ptr %34, null
  br i1 %.not30, label %._crit_edge, label %25, !llvm.loop !25

35:                                               ; preds = %29
  %36 = getelementptr inbounds nuw i8, ptr %4, i64 16
  %37 = load ptr, ptr %36, align 8, !tbaa !26
  %38 = call noalias ptr @strdup(ptr noundef %37) #14
  store ptr %38, ptr %1, align 8, !tbaa !6
  %39 = call i32 @close(i32 noundef %27) #14
  %40 = call i32 @endmntent(ptr noundef nonnull %.023) #14
  %41 = load ptr, ptr %36, align 8, !tbaa !26
  br label %42

42:                                               ; preds = %42, %35
  %indvars.iv = phi i64 [ 0, %35 ], [ %indvars.iv.next, %42 ]
  %43 = getelementptr inbounds nuw [7 x ptr], ptr @__const.pmix_path_nfs.fs_types, i64 0, i64 %indvars.iv
  %44 = load ptr, ptr %43, align 8, !tbaa !6
  %45 = call i32 @strcmp(ptr noundef nonnull dereferenceable(1) %44, ptr noundef nonnull dereferenceable(1) %41) #15
  %46 = icmp eq i32 %45, 0
  %indvars.iv.next = add nuw nsw i64 %indvars.iv, 1
  %.not32 = icmp eq i64 %indvars.iv.next, 6
  %or.cond40 = select i1 %46, i1 true, i1 %.not32
  br i1 %or.cond40, label %.loopexit, label %42, !llvm.loop !27

._crit_edge:                                      ; preds = %.backedge, %22
  %47 = call i32 @endmntent(ptr noundef nonnull %.023) #14
  br label %.loopexit

.loopexit:                                        ; preds = %42, %19, %12, %8, %._crit_edge
  %.0 = phi i1 [ false, %._crit_edge ], [ false, %8 ], [ false, %12 ], [ false, %19 ], [ %46, %42 ]
  call void @llvm.lifetime.end.p0(i64 1024, ptr nonnull %5) #14
  call void @llvm.lifetime.end.p0(i64 40, ptr nonnull %4) #14
  call void @llvm.lifetime.end.p0(i64 144, ptr nonnull %3) #14
  ret i1 %.0
}